; Function Attrs: nounwind uwtable
define ptr @CRYPTO_get_ex_data(ptr noundef readonly captures(none) %0, i32 noundef %1) local_unnamed_addr #0 {
  %3 = getelementptr inbounds nuw i8, ptr %0, i64 8
  %4 = load ptr, ptr %3, align 8, !tbaa !26
  %5 = icmp eq ptr %4, null
  br i1 %5, label %11, label %6

6:                                                ; preds = %2
  %7 = tail call i32 @OPENSSL_sk_num(ptr noundef nonnull %4) #9
  %.not = icmp slt i32 %1, %7
  br i1 %.not, label %8, label %11

8:                                                ; preds = %6
  %9 = load ptr, ptr %3, align 8, !tbaa !26
  %10 = tail call ptr @OPENSSL_sk_value(ptr noundef %9, i32 noundef %1) #9
  br label %11

11:                                               ; preds = %2, %6, %8
  %.0 = phi ptr [ %10, %8 ], [ null, %6 ], [ null, %2 ]
  ret ptr %.0
}